
./console:	file format ELF64-x86-64

Disassembly of section .init:
_init:
  400658:	48 83 ec 08 	subq	$8, %rsp
  40065c:	48 8b 05 85 0b 20 00 	movq	2100101(%rip), %rax
  400663:	48 85 c0 	testq	%rax, %rax
  400666:	74 05 	je	5 <_init+0x15>
  400668:	e8 93 00 00 00 	callq	147
  40066d:	48 83 c4 08 	addq	$8, %rsp
  400671:	c3 	retq
Disassembly of section .plt:
.plt:
  400680:	ff 35 72 0b 20 00 	pushq	2100082(%rip)
  400686:	ff 25 74 0b 20 00 	jmpq	*2100084(%rip)
  40068c:	0f 1f 40 00 	nopl	(%rax)
  400690:	ff 25 72 0b 20 00 	jmpq	*2100082(%rip)
  400696:	68 00 00 00 00 	pushq	$0
  40069b:	e9 e0 ff ff ff 	jmp	-32 <.plt>
  4006a0:	ff 25 6a 0b 20 00 	jmpq	*2100074(%rip)
  4006a6:	68 01 00 00 00 	pushq	$1
  4006ab:	e9 d0 ff ff ff 	jmp	-48 <.plt>
  4006b0:	ff 25 62 0b 20 00 	jmpq	*2100066(%rip)
  4006b6:	68 02 00 00 00 	pushq	$2
  4006bb:	e9 c0 ff ff ff 	jmp	-64 <.plt>
  4006c0:	ff 25 5a 0b 20 00 	jmpq	*2100058(%rip)
  4006c6:	68 03 00 00 00 	pushq	$3
  4006cb:	e9 b0 ff ff ff 	jmp	-80 <.plt>
  4006d0:	ff 25 52 0b 20 00 	jmpq	*2100050(%rip)
  4006d6:	68 04 00 00 00 	pushq	$4
  4006db:	e9 a0 ff ff ff 	jmp	-96 <.plt>
  4006e0:	ff 25 4a 0b 20 00 	jmpq	*2100042(%rip)
  4006e6:	68 05 00 00 00 	pushq	$5
  4006eb:	e9 90 ff ff ff 	jmp	-112 <.plt>
  4006f0:	ff 25 42 0b 20 00 	jmpq	*2100034(%rip)
  4006f6:	68 06 00 00 00 	pushq	$6
  4006fb:	e9 80 ff ff ff 	jmp	-128 <.plt>
  400700:	ff 25 3a 0b 20 00 	jmpq	*2100026(%rip)
  400706:	68 07 00 00 00 	pushq	$7
  40070b:	e9 70 ff ff ff 	jmp	-144 <.plt>
  400710:	ff 25 32 0b 20 00 	jmpq	*2100018(%rip)
  400716:	68 08 00 00 00 	pushq	$8
  40071b:	e9 60 ff ff ff 	jmp	-160 <.plt>
  400720:	ff 25 2a 0b 20 00 	jmpq	*2100010(%rip)
  400726:	68 09 00 00 00 	pushq	$9
  40072b:	e9 50 ff ff ff 	jmp	-176 <.plt>
  400730:	ff 25 22 0b 20 00 	jmpq	*2100002(%rip)
  400736:	68 0a 00 00 00 	pushq	$10
  40073b:	e9 40 ff ff ff 	jmp	-192 <.plt>
  400740:	ff 25 1a 0b 20 00 	jmpq	*2099994(%rip)
  400746:	68 0b 00 00 00 	pushq	$11
  40074b:	e9 30 ff ff ff 	jmp	-208 <.plt>
Disassembly of section .text:
_start:
  400750:	31 ed 	xorl	%ebp, %ebp
  400752:	49 89 d1 	movq	%rdx, %r9
  400755:	5e 	popq	%rsi
  400756:	48 89 e2 	movq	%rsp, %rdx
  400759:	48 83 e4 f0 	andq	$-16, %rsp
  40075d:	50 	pushq	%rax
  40075e:	54 	pushq	%rsp
  40075f:	49 c7 c0 d0 0b 40 00 	movq	$4197328, %r8
  400766:	48 c7 c1 60 0b 40 00 	movq	$4197216, %rcx
  40076d:	48 c7 c7 d3 0a 40 00 	movq	$4197075, %rdi
  400774:	e8 57 ff ff ff 	callq	-169 <.plt+0x50>
  400779:	f4 	hlt
  40077a:	66 0f 1f 44 00 00 	nopw	(%rax,%rax)

deregister_tm_clones:
  400780:	b8 7f 12 60 00 	movl	$6296191, %eax
  400785:	55 	pushq	%rbp
  400786:	48 2d 78 12 60 00 	subq	$6296184, %rax
  40078c:	48 83 f8 0e 	cmpq	$14, %rax
  400790:	48 89 e5 	movq	%rsp, %rbp
  400793:	76 1b 	jbe	27 <deregister_tm_clones+0x30>
  400795:	b8 00 00 00 00 	movl	$0, %eax
  40079a:	48 85 c0 	testq	%rax, %rax
  40079d:	74 11 	je	17 <deregister_tm_clones+0x30>
  40079f:	5d 	popq	%rbp
  4007a0:	bf 78 12 60 00 	movl	$6296184, %edi
  4007a5:	ff e0 	jmpq	*%rax
  4007a7:	66 0f 1f 84 00 00 00 00 00 	nopw	(%rax,%rax)
  4007b0:	5d 	popq	%rbp
  4007b1:	c3 	retq
  4007b2:	66 66 66 66 66 2e 0f 1f 84 00 00 00 00 00 	nopw	%cs:(%rax,%rax)

register_tm_clones:
  4007c0:	be 78 12 60 00 	movl	$6296184, %esi
  4007c5:	55 	pushq	%rbp
  4007c6:	48 81 ee 78 12 60 00 	subq	$6296184, %rsi
  4007cd:	48 c1 fe 03 	sarq	$3, %rsi
  4007d1:	48 89 e5 	movq	%rsp, %rbp
  4007d4:	48 89 f0 	movq	%rsi, %rax
  4007d7:	48 c1 e8 3f 	shrq	$63, %rax
  4007db:	48 01 c6 	addq	%rax, %rsi
  4007de:	48 d1 fe 	sarq	%rsi
  4007e1:	74 15 	je	21 <register_tm_clones+0x38>
  4007e3:	b8 00 00 00 00 	movl	$0, %eax
  4007e8:	48 85 c0 	testq	%rax, %rax
  4007eb:	74 0b 	je	11 <register_tm_clones+0x38>
  4007ed:	5d 	popq	%rbp
  4007ee:	bf 78 12 60 00 	movl	$6296184, %edi
  4007f3:	ff e0 	jmpq	*%rax
  4007f5:	0f 1f 00 	nopl	(%rax)
  4007f8:	5d 	popq	%rbp
  4007f9:	c3 	retq
  4007fa:	66 0f 1f 44 00 00 	nopw	(%rax,%rax)

__do_global_dtors_aux:
  400800:	80 3d 91 0a 20 00 00 	cmpb	$0, 2099857(%rip)
  400807:	75 11 	jne	17 <__do_global_dtors_aux+0x1A>
  400809:	55 	pushq	%rbp
  40080a:	48 89 e5 	movq	%rsp, %rbp
  40080d:	e8 6e ff ff ff 	callq	-146 <deregister_tm_clones>
  400812:	5d 	popq	%rbp
  400813:	c6 05 7e 0a 20 00 01 	movb	$1, 2099838(%rip)
  40081a:	f3 	rep
  40081b:	c3 	retq
  40081c:	0f 1f 40 00 	nopl	(%rax)

frame_dummy:
  400820:	bf 10 10 60 00 	movl	$6295568, %edi
  400825:	48 83 3f 00 	cmpq	$0, (%rdi)
  400829:	75 05 	jne	5 <frame_dummy+0x10>
  40082b:	eb 93 	jmp	-109 <register_tm_clones>
  40082d:	0f 1f 00 	nopl	(%rax)
  400830:	b8 00 00 00 00 	movl	$0, %eax
  400835:	48 85 c0 	testq	%rax, %rax
  400838:	74 f1 	je	-15 <frame_dummy+0xB>
  40083a:	55 	pushq	%rbp
  40083b:	48 89 e5 	movq	%rsp, %rbp
  40083e:	ff d0 	callq	*%rax
  400840:	5d 	popq	%rbp
  400841:	e9 7a ff ff ff 	jmp	-134 <register_tm_clones>

append_command:
  400846:	55 	pushq	%rbp
  400847:	48 89 e5 	movq	%rsp, %rbp
  40084a:	48 83 ec 10 	subq	$16, %rsp
  40084e:	89 f8 	movl	%edi, %eax
  400850:	48 89 75 f0 	movq	%rsi, -16(%rbp)
  400854:	88 45 fc 	movb	%al, -4(%rbp)
  400857:	0f be 55 fc 	movsbl	-4(%rbp), %edx
  40085b:	48 8b 05 3e 0a 20 00 	movq	2099774(%rip), %rax
  400862:	48 8b 4d f0 	movq	-16(%rbp), %rcx
  400866:	be e8 0b 40 00 	movl	$4197352, %esi
  40086b:	48 89 c7 	movq	%rax, %rdi
  40086e:	b8 00 00 00 00 	movl	$0, %eax
  400873:	e8 78 fe ff ff 	callq	-392 <.plt+0x70>
  400878:	c9 	leave
  400879:	c3 	retq

set_login_message:
  40087a:	55 	pushq	%rbp
  40087b:	48 89 e5 	movq	%rsp, %rbp
  40087e:	48 83 ec 10 	subq	$16, %rsp
  400882:	48 89 7d f8 	movq	%rdi, -8(%rbp)
  400886:	48 83 7d f8 00 	cmpq	$0, -8(%rbp)
  40088b:	75 14 	jne	20 <set_login_message+0x27>
  40088d:	bf ef 0b 40 00 	movl	$4197359, %edi
  400892:	e8 f9 fd ff ff 	callq	-519 <.plt+0x10>
  400897:	bf 01 00 00 00 	movl	$1, %edi
  40089c:	e8 8f fe ff ff 	callq	-369 <.plt+0xB0>
  4008a1:	48 8b 45 f8 	movq	-8(%rbp), %rax
  4008a5:	48 89 c6 	movq	%rax, %rsi
  4008a8:	bf 01 0c 40 00 	movl	$4197377, %edi
  4008ad:	b8 00 00 00 00 	movl	$0, %eax
  4008b2:	e8 09 fe ff ff 	callq	-503 <.plt+0x40>
  4008b7:	48 8b 45 f8 	movq	-8(%rbp), %rax
  4008bb:	48 89 c6 	movq	%rax, %rsi
  4008be:	bf 6c 00 00 00 	movl	$108, %edi
  4008c3:	e8 7e ff ff ff 	callq	-130 <append_command>
  4008c8:	bf 00 00 00 00 	movl	$0, %edi
  4008cd:	e8 5e fe ff ff 	callq	-418 <.plt+0xB0>

set_exit_message:
  4008d2:	55 	pushq	%rbp
  4008d3:	48 89 e5 	movq	%rsp, %rbp
  4008d6:	48 83 ec 10 	subq	$16, %rsp
  4008da:	48 89 7d f8 	movq	%rdi, -8(%rbp)
  4008de:	48 83 7d f8 00 	cmpq	$0, -8(%rbp)
  4008e3:	75 14 	jne	20 <set_exit_message+0x27>
  4008e5:	bf ef 0b 40 00 	movl	$4197359, %edi
  4008ea:	e8 a1 fd ff ff 	callq	-607 <.plt+0x10>
  4008ef:	bf 01 00 00 00 	movl	$1, %edi
  4008f4:	e8 37 fe ff ff 	callq	-457 <.plt+0xB0>
  4008f9:	bf 18 0c 40 00 	movl	$4197400, %edi
  4008fe:	e8 8d fd ff ff 	callq	-627 <.plt+0x10>
  400903:	48 8b 45 f8 	movq	-8(%rbp), %rax
  400907:	48 89 c7 	movq	%rax, %rdi
  40090a:	b8 00 00 00 00 	movl	$0, %eax
  40090f:	e8 ac fd ff ff 	callq	-596 <.plt+0x40>
  400914:	48 8b 45 f8 	movq	-8(%rbp), %rax
  400918:	48 89 c6 	movq	%rax, %rsi
  40091b:	bf 65 00 00 00 	movl	$101, %edi
  400920:	e8 21 ff ff ff 	callq	-223 <append_command>
  400925:	bf 00 00 00 00 	movl	$0, %edi
  40092a:	e8 01 fe ff ff 	callq	-511 <.plt+0xB0>

set_prompt:
  40092f:	55 	pushq	%rbp
  400930:	48 89 e5 	movq	%rsp, %rbp
  400933:	48 83 ec 10 	subq	$16, %rsp
  400937:	48 89 7d f8 	movq	%rdi, -8(%rbp)
  40093b:	48 83 7d f8 00 	cmpq	$0, -8(%rbp)
  400940:	75 14 	jne	20 <set_prompt+0x27>
  400942:	bf 2a 0c 40 00 	movl	$4197418, %edi
  400947:	e8 44 fd ff ff 	callq	-700 <.plt+0x10>
  40094c:	bf 01 00 00 00 	movl	$1, %edi
  400951:	e8 da fd ff ff 	callq	-550 <.plt+0xB0>
  400956:	48 8b 45 f8 	movq	-8(%rbp), %rax
  40095a:	48 89 c7 	movq	%rax, %rdi
  40095d:	e8 3e fd ff ff 	callq	-706 <.plt+0x20>
  400962:	48 83 f8 0a 	cmpq	$10, %rax
  400966:	76 14 	jbe	20 <set_prompt+0x4D>
  400968:	bf 3b 0c 40 00 	movl	$4197435, %edi
  40096d:	e8 1e fd ff ff 	callq	-738 <.plt+0x10>
  400972:	bf 01 00 00 00 	movl	$1, %edi
  400977:	e8 b4 fd ff ff 	callq	-588 <.plt+0xB0>
  40097c:	48 8b 45 f8 	movq	-8(%rbp), %rax
  400980:	48 89 c6 	movq	%rax, %rsi
  400983:	bf 4b 0c 40 00 	movl	$4197451, %edi
  400988:	b8 00 00 00 00 	movl	$0, %eax
  40098d:	e8 2e fd ff ff 	callq	-722 <.plt+0x40>
  400992:	48 8b 45 f8 	movq	-8(%rbp), %rax
  400996:	48 89 c6 	movq	%rax, %rsi
  400999:	bf 70 00 00 00 	movl	$112, %edi
  40099e:	e8 a3 fe ff ff 	callq	-349 <append_command>
  4009a3:	bf 00 00 00 00 	movl	$0, %edi
  4009a8:	e8 83 fd ff ff 	callq	-637 <.plt+0xB0>

print_help:
  4009ad:	55 	pushq	%rbp
  4009ae:	48 89 e5 	movq	%rsp, %rbp
  4009b1:	bf 68 0c 40 00 	movl	$4197480, %edi
  4009b6:	e8 d5 fc ff ff 	callq	-811 <.plt+0x10>
  4009bb:	5d 	popq	%rbp
  4009bc:	c3 	retq

loop:
  4009bd:	55 	pushq	%rbp
  4009be:	48 89 e5 	movq	%rsp, %rbp
  4009c1:	48 81 ec 30 04 00 00 	subq	$1072, %rsp
  4009c8:	64 48 8b 04 25 28 00 00 00 	movq	%fs:40, %rax
  4009d1:	48 89 45 f8 	movq	%rax, -8(%rbp)
  4009d5:	31 c0 	xorl	%eax, %eax
  4009d7:	bf 0a 0d 40 00 	movl	$4197642, %edi
  4009dc:	b8 00 00 00 00 	movl	$0, %eax
  4009e1:	e8 da fc ff ff 	callq	-806 <.plt+0x40>
  4009e6:	48 8b 15 9b 08 20 00 	movq	2099355(%rip), %rdx
  4009ed:	48 8d 85 f0 fb ff ff 	leaq	-1040(%rbp), %rax
  4009f4:	be 00 04 00 00 	movl	$1024, %esi
  4009f9:	48 89 c7 	movq	%rax, %rdi
  4009fc:	e8 df fc ff ff 	callq	-801 <.plt+0x60>
  400a01:	48 89 85 d8 fb ff ff 	movq	%rax, -1064(%rbp)
  400a08:	48 83 bd d8 fb ff ff 00 	cmpq	$0, -1064(%rbp)
  400a10:	75 0a 	jne	10 <loop+0x5F>
  400a12:	bf 01 00 00 00 	movl	$1, %edi
  400a17:	e8 14 fd ff ff 	callq	-748 <.plt+0xB0>
  400a1c:	48 8b 85 d8 fb ff ff 	movq	-1064(%rbp), %rax
  400a23:	be 1a 0d 40 00 	movl	$4197658, %esi
  400a28:	48 89 c7 	movq	%rax, %rdi
  400a2b:	e8 f0 fc ff ff 	callq	-784 <.plt+0xA0>
  400a30:	48 89 85 e0 fb ff ff 	movq	%rax, -1056(%rbp)
  400a37:	48 83 bd e0 fb ff ff 00 	cmpq	$0, -1056(%rbp)
  400a3f:	75 05 	jne	5 <loop+0x89>
  400a41:	e9 88 00 00 00 	jmp	136 <loop+0x111>
  400a46:	be 1c 0d 40 00 	movl	$4197660, %esi
  400a4b:	bf 00 00 00 00 	movl	$0, %edi
  400a50:	e8 cb fc ff ff 	callq	-821 <.plt+0xA0>
  400a55:	48 89 85 e8 fb ff ff 	movq	%rax, -1048(%rbp)
  400a5c:	48 8b 85 e0 fb ff ff 	movq	-1056(%rbp), %rax
  400a63:	0f b6 00 	movzbl	(%rax), %eax
  400a66:	0f be c0 	movsbl	%al, %eax
  400a69:	83 f8 68 	cmpl	$104, %eax
  400a6c:	74 55 	je	85 <loop+0x106>
  400a6e:	83 f8 68 	cmpl	$104, %eax
  400a71:	7f 07 	jg	7 <loop+0xBD>
  400a73:	83 f8 65 	cmpl	$101, %eax
  400a76:	74 1f 	je	31 <loop+0xDA>
  400a78:	eb 3f 	jmp	63 <loop+0xFC>
  400a7a:	83 f8 6c 	cmpl	$108, %eax
  400a7d:	74 07 	je	7 <loop+0xC9>
  400a7f:	83 f8 70 	cmpl	$112, %eax
  400a82:	74 24 	je	36 <loop+0xEB>
  400a84:	eb 33 	jmp	51 <loop+0xFC>
  400a86:	48 8b 85 e8 fb ff ff 	movq	-1048(%rbp), %rax
  400a8d:	48 89 c7 	movq	%rax, %rdi
  400a90:	e8 e5 fd ff ff 	callq	-539 <set_login_message>
  400a95:	eb 37 	jmp	55 <loop+0x111>
  400a97:	48 8b 85 e8 fb ff ff 	movq	-1048(%rbp), %rax
  400a9e:	48 89 c7 	movq	%rax, %rdi
  400aa1:	e8 2c fe ff ff 	callq	-468 <set_exit_message>
  400aa6:	eb 26 	jmp	38 <loop+0x111>
  400aa8:	48 8b 85 e8 fb ff ff 	movq	-1048(%rbp), %rax
  400aaf:	48 89 c7 	movq	%rax, %rdi
  400ab2:	e8 78 fe ff ff 	callq	-392 <set_prompt>
  400ab7:	eb 15 	jmp	21 <loop+0x111>
  400ab9:	bf 1e 0d 40 00 	movl	$4197662, %edi
  400abe:	e8 cd fb ff ff 	callq	-1075 <.plt+0x10>
  400ac3:	b8 00 00 00 00 	movl	$0, %eax
  400ac8:	e8 e0 fe ff ff 	callq	-288 <print_help>
  400acd:	90 	nop
  400ace:	e9 04 ff ff ff 	jmp	-252 <loop+0x1A>

main:
  400ad3:	55 	pushq	%rbp
  400ad4:	48 89 e5 	movq	%rsp, %rbp
  400ad7:	48 83 ec 10 	subq	$16, %rsp
  400adb:	89 7d fc 	movl	%edi, -4(%rbp)
  400ade:	48 89 75 f0 	movq	%rsi, -16(%rbp)
  400ae2:	83 7d fc 02 	cmpl	$2, -4(%rbp)
  400ae6:	74 25 	je	37 <main+0x3A>
  400ae8:	48 8b 05 a1 07 20 00 	movq	2099105(%rip), %rax
  400aef:	48 89 c1 	movq	%rax, %rcx
  400af2:	ba 12 00 00 00 	movl	$18, %edx
  400af7:	be 01 00 00 00 	movl	$1, %esi
  400afc:	bf 34 0d 40 00 	movl	$4197684, %edi
  400b01:	e8 3a fc ff ff 	callq	-966 <.plt+0xC0>
  400b06:	b8 01 00 00 00 	movl	$1, %eax
  400b0b:	eb 42 	jmp	66 <main+0x7C>
  400b0d:	48 8b 45 f0 	movq	-16(%rbp), %rax
  400b11:	48 83 c0 08 	addq	$8, %rax
  400b15:	48 8b 00 	movq	(%rax), %rax
  400b18:	be 47 0d 40 00 	movl	$4197703, %esi
  400b1d:	48 89 c7 	movq	%rax, %rdi
  400b20:	e8 eb fb ff ff 	callq	-1045 <.plt+0x90>
  400b25:	48 89 05 74 07 20 00 	movq	%rax, 2099060(%rip)
  400b2c:	48 8b 05 4d 07 20 00 	movq	2099021(%rip), %rax
  400b33:	be 00 00 00 00 	movl	$0, %esi
  400b38:	48 89 c7 	movq	%rax, %rdi
  400b3b:	e8 70 fb ff ff 	callq	-1168 <.plt+0x30>
  400b40:	b8 00 00 00 00 	movl	$0, %eax
  400b45:	e8 73 fe ff ff 	callq	-397 <loop>
  400b4a:	b8 00 00 00 00 	movl	$0, %eax
  400b4f:	c9 	leave
  400b50:	c3 	retq
  400b51:	66 2e 0f 1f 84 00 00 00 00 00 	nopw	%cs:(%rax,%rax)
  400b5b:	0f 1f 44 00 00 	nopl	(%rax,%rax)

__libc_csu_init:
  400b60:	41 57 	pushq	%r15
  400b62:	41 89 ff 	movl	%edi, %r15d
  400b65:	41 56 	pushq	%r14
  400b67:	49 89 f6 	movq	%rsi, %r14
  400b6a:	41 55 	pushq	%r13
  400b6c:	49 89 d5 	movq	%rdx, %r13
  400b6f:	41 54 	pushq	%r12
  400b71:	4c 8d 25 88 04 20 00 	leaq	2098312(%rip), %r12
  400b78:	55 	pushq	%rbp
  400b79:	48 8d 2d 88 04 20 00 	leaq	2098312(%rip), %rbp
  400b80:	53 	pushq	%rbx
  400b81:	4c 29 e5 	subq	%r12, %rbp
  400b84:	31 db 	xorl	%ebx, %ebx
  400b86:	48 c1 fd 03 	sarq	$3, %rbp
  400b8a:	48 83 ec 08 	subq	$8, %rsp
  400b8e:	e8 c5 fa ff ff 	callq	-1339 <_init>
  400b93:	48 85 ed 	testq	%rbp, %rbp
  400b96:	74 1e 	je	30 <__libc_csu_init+0x56>
  400b98:	0f 1f 84 00 00 00 00 00 	nopl	(%rax,%rax)
  400ba0:	4c 89 ea 	movq	%r13, %rdx
  400ba3:	4c 89 f6 	movq	%r14, %rsi
  400ba6:	44 89 ff 	movl	%r15d, %edi
  400ba9:	41 ff 14 dc 	callq	*(%r12,%rbx,8)
  400bad:	48 83 c3 01 	addq	$1, %rbx
  400bb1:	48 39 eb 	cmpq	%rbp, %rbx
  400bb4:	75 ea 	jne	-22 <__libc_csu_init+0x40>
  400bb6:	48 83 c4 08 	addq	$8, %rsp
  400bba:	5b 	popq	%rbx
  400bbb:	5d 	popq	%rbp
  400bbc:	41 5c 	popq	%r12
  400bbe:	41 5d 	popq	%r13
  400bc0:	41 5e 	popq	%r14
  400bc2:	41 5f 	popq	%r15
  400bc4:	c3 	retq
  400bc5:	66 66 2e 0f 1f 84 00 00 00 00 00 	nopw	%cs:(%rax,%rax)

__libc_csu_fini:
  400bd0:	f3 	rep
  400bd1:	c3 	retq
Disassembly of section .fini:
_fini:
  400bd4:	48 83 ec 08 	subq	$8, %rsp
  400bd8:	48 83 c4 08 	addq	$8, %rsp
  400bdc:	c3 	retq